; Function Attrs: mustprogress nounwind uwtable
define hidden noundef range(i64 0, 2305843009213693952) i64 @_ZN11MetaspaceGC17allowed_expansionEv() local_unnamed_addr #0 align 2 {
  %1 = tail call noundef i64 @_ZN9metaspace15RunningCounters15committed_wordsEv() #14
  %2 = shl i64 %1, 3
  %3 = load volatile i64, ptr @_ZN11MetaspaceGC18_capacity_until_GCE, align 8
  tail call void asm sideeffect "", "~{memory},~{dirflag},~{fpsr},~{flags}"() #14, !srcloc !14
  %4 = load i64, ptr @MaxMetaspaceSize, align 8
  %5 = sub i64 %4, %2
  %6 = tail call i64 @llvm.usub.sat.i64(i64 %3, i64 %2)
  %7 = tail call noundef i64 @llvm.umin.i64(i64 %6, i64 %5)
  %8 = load volatile ptr, ptr getelementptr inbounds (i8, ptr @_ZN16LogTagSetMappingILN6LogTag4typeE49ELS1_84ELS1_48ELS1_0ELS1_0ELS1_0EE7_tagsetE, i64 48), align 8
  %.not = icmp eq ptr %8, null
  %.pre = lshr i64 %7, 3
  br i1 %.not, label %._crit_edge, label %9

9:                                                ; preds = %0
  %10 = lshr i64 %5, 3
  %11 = lshr i64 %6, 3
  tail call void (ptr, ...) @_ZN7LogImplILN6LogTag4typeE49ELS1_84ELS1_48ELS1_0ELS1_0ELS1_0EE5writeILN8LogLevel4typeE1EEEvPKcz(ptr noundef nonnull @.str.14, i64 noundef %.pre, i64 noundef %10, i64 noundef %11)
  br label %._crit_edge

._crit_edge:                                      ; preds = %0, %9
  ret i64 %.pre
}